Certificate:
    Data:
        Version: 3 (0x2)
        Serial Number: 3 (0x3)
    Signature Algorithm: sha1WithRSAEncryption
        Issuer: CN=ca.localdomain, C=FR, ST=BdR, L=Aix, O=fD, OU=Tests
        Validity
            Not Before: Dec  9 22:53:52 2015 GMT
            Not After : Dec  8 22:53:52 2016 GMT
        Subject: C=FR, ST=BdR, O=fD, OU=Tests, CN=peer3.localdomain
        Subject Public Key Info:
            Public Key Algorithm: rsaEncryption
                Public-Key: (1024 bit)
                Modulus:
                    00:ba:3f:04:18:60:1a:e8:2b:37:28:7e:c5:de:32:
                    f6:af:a7:59:05:78:c0:a5:22:87:28:c4:ad:3e:0e:
                    b2:91:13:64:e9:43:3e:ac:71:da:15:a7:13:ec:bb:
                    c5:d6:2a:3b:2e:1e:dd:a7:44:bb:de:61:cd:1e:0d:
                    d8:ec:2f:d8:f0:b9:36:07:b1:1f:a0:bf:86:82:c1:
                    79:a3:9c:e2:31:06:9c:48:d7:6c:e2:48:b7:52:4c:
                    34:ce:fb:34:8b:93:f3:ec:16:d1:c6:f0:27:6f:02:
                    e0:64:04:15:0e:eb:aa:15:3c:d7:12:ed:b5:1a:4c:
                    fa:7b:1b:b9:c8:d8:76:e4:05
                Exponent: 65537 (0x10001)
        X509v3 extensions:
            X509v3 Basic Constraints: 
                CA:FALSE
            Netscape Comment: 
                OpenSSL Generated Certificate
            X509v3 Subject Key Identifier: 
                E2:E0:C2:A0:DD:A7:F3:0D:6B:CC:6F:A7:82:C5:C1:0C:57:2E:48:10
            X509v3 Authority Key Identifier: 
                keyid:E9:EF:AB:91:1E:15:90:FD:0C:5D:B3:83:5D:3D:D6:FF:1F:B4:A0:08

    Signature Algorithm: sha1WithRSAEncryption
         cb:80:1b:9b:ad:da:16:de:b7:40:f1:27:0d:c7:4e:43:ed:2f:
         9c:25:ce:b3:9f:a5:d2:30:93:78:b7:f3:f5:12:e5:0e:ef:66:
         ad:05:cf:a5:f9:b7:e3:8a:5b:02:54:a8:bb:66:6c:54:c3:14:
         07:2c:43:f1:f4:8f:b8:c9:50:cb:ac:10:73:26:e5:f0:88:93:
         63:97:33:bd:f9:b7:40:26:35:e1:b4:25:11:46:1f:76:17:25:
         b6:bd:39:84:e8:6a:4c:ca:78:a0:c5:f6:4e:01:f3:e2:8b:af:
         47:9d:21:21:48:f6:71:23:19:76:54:cf:89:2c:29:67:13:ca:
         07:da
-----BEGIN CERTIFICATE-----
MIICpDCCAg2gAwIBAgIBAzANBgkqhkiG9w0BAQUFADBfMRcwFQYDVQQDDA5jYS5s
b2NhbGRvbWFpbjELMAkGA1UEBhMCRlIxDDAKBgNVBAgMA0JkUjEMMAoGA1UEBwwD
QWl4MQswCQYDVQQKDAJmRDEOMAwGA1UECwwFVGVzdHMwHhcNMTUxMjA5MjI1MzUy
WhcNMTYxMjA4MjI1MzUyWjBUMQswCQYDVQQGEwJGUjEMMAoGA1UECAwDQmRSMQsw
CQYDVQQKDAJmRDEOMAwGA1UECwwFVGVzdHMxGjAYBgNVBAMMEXBlZXIzLmxvY2Fs
ZG9tYWluMIGfMA0GCSqGSIb3DQEBAQUAA4GNADCBiQKBgQC6PwQYYBroKzcofsXe
Mvavp1kFeMClIocoxK0+DrKRE2TpQz6scdoVpxPsu8XWKjsuHt2nRLveYc0eDdjs
L9jwuTYHsR+gv4aCwXmjnOIxBpxI12ziSLdSTDTO+zSLk/PsFtHG8CdvAuBkBBUO
66oVPNcS7bUaTPp7G7nI2HbkBQIDAQABo3sweTAJBgNVHRMEAjAAMCwGCWCGSAGG
+EIBDQQfFh1PcGVuU1NMIEdlbmVyYXRlZCBDZXJ0aWZpY2F0ZTAdBgNVHQ4EFgQU
4uDCoN2n8w1rzG+ngsXBDFcuSBAwHwYDVR0jBBgwFoAU6e+rkR4VkP0MXbODXT3W
/x+0oAgwDQYJKoZIhvcNAQEFBQADgYEAy4Abm63aFt63QPEnDcdOQ+0vnCXOs5+l
0jCTeLfz9RLlDu9mrQXPpfm344pbAlSou2ZsVMMUByxD8fSPuMlQy6wQcybl8IiT
Y5czvfm3QCY14bQlEUYfdhcltr05hOhqTMp4oMX2TgHz4ouvR50hIUj2cSMZdlTP
iSwpZxPKB9o=
-----END CERTIFICATE-----
