Certificate:
    Data:
        Version: 3 (0x2)
        Serial Number: 1 (0x1)
    Signature Algorithm: sha1WithRSAEncryption
        Issuer: CN=ca.EPC.MNC081.MCC275.3GPPNETWORK.ORG, C=FR, ST=BdR, L=Aix, O=fD, OU=Tests
        Validity
            Not Before: Jan 26 21:42:46 2016 GMT
            Not After : Jan 25 21:42:46 2017 GMT
        Subject: C=FR, ST=BdR, O=fD, OU=Tests, CN=HSS81.NODE.EPC.MNC081.MCC275.3GPPNETWORK.ORG
        Subject Public Key Info:
            Public Key Algorithm: rsaEncryption
                Public-Key: (1024 bit)
                Modulus:
                    00:b8:75:6b:75:e4:77:6a:01:d9:65:83:6a:8b:3f:
                    a2:b8:00:01:c6:80:50:c3:04:c2:74:4b:52:5a:75:
                    39:f1:c4:67:ee:0f:9d:cb:28:ab:b6:43:3b:84:9c:
                    ba:48:03:95:38:64:b3:1d:51:6f:33:41:79:9f:30:
                    08:4c:51:e4:8c:ef:33:65:ba:fe:b6:ff:b0:48:2f:
                    55:b3:a0:8c:28:a2:1d:b5:5e:5f:cd:c9:7c:e2:46:
                    ef:83:62:a1:71:9a:53:5c:0f:2f:73:21:a4:62:b8:
                    21:17:90:72:d6:cc:d1:c6:f8:8e:41:ca:db:40:f6:
                    1a:7f:53:15:b9:dd:34:72:45
                Exponent: 65537 (0x10001)
        X509v3 extensions:
            X509v3 Basic Constraints: 
                CA:FALSE
            Netscape Comment: 
                OpenSSL Generated Certificate
            X509v3 Subject Key Identifier: 
                76:A0:BD:95:A0:43:A9:93:4D:25:1D:94:00:EA:59:18:3C:FD:D5:62
            X509v3 Authority Key Identifier: 
                keyid:4E:29:50:7C:2C:C4:AB:32:57:76:4B:63:BD:26:CA:6F:E7:A5:BC:06

    Signature Algorithm: sha1WithRSAEncryption
         c7:11:ff:99:87:0d:b6:21:c8:fe:27:50:48:47:bc:88:c1:51:
         bf:01:17:10:e1:79:9d:3b:d2:4d:28:e9:9b:d5:44:9d:be:8b:
         56:d2:22:da:af:49:0b:e1:3d:3c:9e:d0:ad:40:86:20:45:83:
         92:f3:bf:a4:94:0a:74:34:98:92:bb:c0:26:5a:db:1d:aa:26:
         1e:0d:a2:3f:0c:55:60:1d:16:e3:21:c2:5d:b0:e8:e9:ee:0c:
         00:35:fd:b0:4d:73:d5:56:3a:c7:d7:3b:cd:d5:d6:cc:ff:52:
         96:a7:9c:1a:cb:8c:d0:46:a0:8b:fc:24:34:d7:6f:67:ee:a8:
         47:be
-----BEGIN CERTIFICATE-----
MIIC1TCCAj6gAwIBAgIBATANBgkqhkiG9w0BAQUFADB1MS0wKwYDVQQDDCRjYS5F
UEMuTU5DMDgxLk1DQzI3NS4zR1BQTkVUV09SSy5PUkcxCzAJBgNVBAYTAkZSMQww
CgYDVQQIDANCZFIxDDAKBgNVBAcMA0FpeDELMAkGA1UECgwCZkQxDjAMBgNVBAsM
BVRlc3RzMB4XDTE2MDEyNjIxNDI0NloXDTE3MDEyNTIxNDI0NlowbzELMAkGA1UE
BhMCRlIxDDAKBgNVBAgMA0JkUjELMAkGA1UECgwCZkQxDjAMBgNVBAsMBVRlc3Rz
MTUwMwYDVQQDDCxIU1M4MS5OT0RFLkVQQy5NTkMwODEuTUNDMjc1LjNHUFBORVRX
T1JLLk9SRzCBnzANBgkqhkiG9w0BAQEFAAOBjQAwgYkCgYEAuHVrdeR3agHZZYNq
iz+iuAABxoBQwwTCdEtSWnU58cRn7g+dyyirtkM7hJy6SAOVOGSzHVFvM0F5nzAI
TFHkjO8zZbr+tv+wSC9Vs6CMKKIdtV5fzcl84kbvg2KhcZpTXA8vcyGkYrghF5By
1szRxviOQcrbQPYaf1MVud00ckUCAwEAAaN7MHkwCQYDVR0TBAIwADAsBglghkgB
hvhCAQ0EHxYdT3BlblNTTCBHZW5lcmF0ZWQgQ2VydGlmaWNhdGUwHQYDVR0OBBYE
FHagvZWgQ6mTTSUdlADqWRg8/dViMB8GA1UdIwQYMBaAFE4pUHwsxKsyV3ZLY70m
ym/npbwGMA0GCSqGSIb3DQEBBQUAA4GBAMcR/5mHDbYhyP4nUEhHvIjBUb8BFxDh
eZ070k0o6ZvVRJ2+i1bSItqvSQvhPTye0K1AhiBFg5Lzv6SUCnQ0mJK7wCZa2x2q
Jh4Noj8MVWAdFuMhwl2w6OnuDAA1/bBNc9VWOsfXO83V1sz/UpannBrLjNBGoIv8
JDTXb2fuqEe+
-----END CERTIFICATE-----
