Certificate:
    Data:
        Version: 3 (0x2)
        Serial Number: 2 (0x2)
    Signature Algorithm: sha1WithRSAEncryption
        Issuer: CN=ca.localdomain, C=FR, ST=BdR, L=Aix, O=fD, OU=Tests
        Validity
            Not Before: Dec  9 22:53:52 2015 GMT
            Not After : Dec  8 22:53:52 2016 GMT
        Subject: C=FR, ST=BdR, O=fD, OU=Tests, CN=peer2.localdomain
        Subject Public Key Info:
            Public Key Algorithm: rsaEncryption
                Public-Key: (1024 bit)
                Modulus:
                    00:d1:11:16:65:ab:67:7a:57:1e:ff:d0:fe:7f:d5:
                    ce:7d:8a:2f:60:93:7f:ee:d7:3d:df:b2:43:da:30:
                    f7:73:6a:ae:16:2c:4e:25:80:d8:59:61:4f:a2:f8:
                    a5:fd:ca:8c:b2:d0:78:8a:7b:aa:6b:70:df:b2:d2:
                    ba:90:2e:13:c5:e9:64:67:ff:2e:72:0b:54:b3:c6:
                    01:62:ee:c2:5e:4c:ca:35:4f:61:a5:e3:45:41:e6:
                    a6:07:72:1d:21:e6:e3:b2:e0:a0:42:c2:d6:5a:00:
                    30:9d:e3:80:5a:5e:71:75:9f:f5:04:18:6f:48:e2:
                    ff:d2:2f:07:20:17:99:92:1f
                Exponent: 65537 (0x10001)
        X509v3 extensions:
            X509v3 Basic Constraints: 
                CA:FALSE
            Netscape Comment: 
                OpenSSL Generated Certificate
            X509v3 Subject Key Identifier: 
                43:3E:5E:01:34:39:B2:6D:04:61:6F:A0:A6:58:EA:EB:CD:E4:07:51
            X509v3 Authority Key Identifier: 
                keyid:E9:EF:AB:91:1E:15:90:FD:0C:5D:B3:83:5D:3D:D6:FF:1F:B4:A0:08

    Signature Algorithm: sha1WithRSAEncryption
         82:af:c8:b5:60:c3:56:df:e4:f0:e6:4a:cb:44:e5:01:03:20:
         ac:ce:67:28:3e:37:a7:e3:6c:6e:7e:6f:a0:e1:27:cb:70:e3:
         df:65:40:1c:69:c0:86:86:db:86:e4:4f:0d:45:cc:c3:4e:94:
         2c:22:90:43:37:84:db:dc:cf:b4:81:17:b0:7c:de:02:3d:77:
         d6:b4:85:72:25:41:97:14:b7:ef:bd:bd:c1:3d:a4:54:c8:dc:
         d8:64:f7:d6:52:6d:b0:9f:50:e5:43:bd:b5:92:0a:52:32:0d:
         85:3e:14:b4:4d:49:ed:62:1b:90:58:fc:55:64:22:bb:f7:47:
         55:de
-----BEGIN CERTIFICATE-----
MIICpDCCAg2gAwIBAgIBAjANBgkqhkiG9w0BAQUFADBfMRcwFQYDVQQDDA5jYS5s
b2NhbGRvbWFpbjELMAkGA1UEBhMCRlIxDDAKBgNVBAgMA0JkUjEMMAoGA1UEBwwD
QWl4MQswCQYDVQQKDAJmRDEOMAwGA1UECwwFVGVzdHMwHhcNMTUxMjA5MjI1MzUy
WhcNMTYxMjA4MjI1MzUyWjBUMQswCQYDVQQGEwJGUjEMMAoGA1UECAwDQmRSMQsw
CQYDVQQKDAJmRDEOMAwGA1UECwwFVGVzdHMxGjAYBgNVBAMMEXBlZXIyLmxvY2Fs
ZG9tYWluMIGfMA0GCSqGSIb3DQEBAQUAA4GNADCBiQKBgQDRERZlq2d6Vx7/0P5/
1c59ii9gk3/u1z3fskPaMPdzaq4WLE4lgNhZYU+i+KX9yoyy0HiKe6prcN+y0rqQ
LhPF6WRn/y5yC1SzxgFi7sJeTMo1T2Gl40VB5qYHch0h5uOy4KBCwtZaADCd44Ba
XnF1n/UEGG9I4v/SLwcgF5mSHwIDAQABo3sweTAJBgNVHRMEAjAAMCwGCWCGSAGG
+EIBDQQfFh1PcGVuU1NMIEdlbmVyYXRlZCBDZXJ0aWZpY2F0ZTAdBgNVHQ4EFgQU
Qz5eATQ5sm0EYW+gpljq683kB1EwHwYDVR0jBBgwFoAU6e+rkR4VkP0MXbODXT3W
/x+0oAgwDQYJKoZIhvcNAQEFBQADgYEAgq/ItWDDVt/k8OZKy0TlAQMgrM5nKD43
p+Nsbn5voOEny3Dj32VAHGnAhobbhuRPDUXMw06ULCKQQzeE29zPtIEXsHzeAj13
1rSFciVBlxS37729wT2kVMjc2GT31lJtsJ9Q5UO9tZIKUjINhT4UtE1J7WIbkFj8
VWQiu/dHVd4=
-----END CERTIFICATE-----
