Certificate:
    Data:
        Version: 3 (0x2)
        Serial Number: 1 (0x1)
    Signature Algorithm: sha1WithRSAEncryption
        Issuer: CN=ca.localdomain, C=FR, ST=BdR, L=Aix, O=fD, OU=Tests
        Validity
            Not Before: Dec  9 22:53:52 2015 GMT
            Not After : Dec  8 22:53:52 2016 GMT
        Subject: C=FR, ST=BdR, O=fD, OU=Tests, CN=peer1.localdomain
        Subject Public Key Info:
            Public Key Algorithm: rsaEncryption
                Public-Key: (1024 bit)
                Modulus:
                    00:eb:3e:f7:ab:28:1d:d9:ed:a9:9f:bd:15:5d:16:
                    11:19:41:aa:a5:30:2a:8b:7e:d4:60:6b:b5:ee:a7:
                    ff:79:f8:3d:69:05:d3:87:59:79:f2:21:9f:5d:c7:
                    42:e9:93:3f:1a:96:8c:81:1b:cb:6a:8e:88:eb:1b:
                    e1:ef:82:7e:5f:ed:a9:e6:9d:2f:eb:e2:69:04:ce:
                    d0:a9:e4:72:92:84:bc:d8:0a:9f:67:35:87:f4:ef:
                    8a:e0:ab:87:7e:7b:c9:cf:60:56:d8:35:1d:b6:22:
                    53:2e:ab:f0:45:9b:6a:a8:be:97:68:f8:4d:f4:ad:
                    cb:3c:8c:7a:7a:4f:25:fe:4f
                Exponent: 65537 (0x10001)
        X509v3 extensions:
            X509v3 Basic Constraints: 
                CA:FALSE
            Netscape Comment: 
                OpenSSL Generated Certificate
            X509v3 Subject Key Identifier: 
                DD:64:E8:0E:70:EC:18:9F:0B:E0:58:34:2E:93:86:A2:A1:26:BC:7A
            X509v3 Authority Key Identifier: 
                keyid:E9:EF:AB:91:1E:15:90:FD:0C:5D:B3:83:5D:3D:D6:FF:1F:B4:A0:08

    Signature Algorithm: sha1WithRSAEncryption
         4e:c7:f2:6c:3d:b2:7e:c4:e7:d2:c5:8d:3b:a3:9a:18:3b:e9:
         b4:8c:c0:c5:ad:54:75:ec:65:8d:35:f2:f9:57:35:79:88:9d:
         fc:46:c2:f4:ea:ba:6f:5f:63:d6:c6:60:d2:04:68:c3:92:cb:
         9c:60:99:e8:1c:d5:54:3e:7c:f8:82:95:17:5e:62:42:ad:55:
         36:27:ce:e9:77:60:3e:a6:73:1b:69:7a:65:85:a8:00:94:f9:
         a5:1b:84:36:85:55:7c:b1:59:39:59:db:96:15:f4:89:47:46:
         6a:c4:76:95:89:85:9b:35:89:9f:36:26:10:f7:5a:18:90:e6:
         c8:d4
-----BEGIN CERTIFICATE-----
MIICpDCCAg2gAwIBAgIBATANBgkqhkiG9w0BAQUFADBfMRcwFQYDVQQDDA5jYS5s
b2NhbGRvbWFpbjELMAkGA1UEBhMCRlIxDDAKBgNVBAgMA0JkUjEMMAoGA1UEBwwD
QWl4MQswCQYDVQQKDAJmRDEOMAwGA1UECwwFVGVzdHMwHhcNMTUxMjA5MjI1MzUy
WhcNMTYxMjA4MjI1MzUyWjBUMQswCQYDVQQGEwJGUjEMMAoGA1UECAwDQmRSMQsw
CQYDVQQKDAJmRDEOMAwGA1UECwwFVGVzdHMxGjAYBgNVBAMMEXBlZXIxLmxvY2Fs
ZG9tYWluMIGfMA0GCSqGSIb3DQEBAQUAA4GNADCBiQKBgQDrPverKB3Z7amfvRVd
FhEZQaqlMCqLftRga7Xup/95+D1pBdOHWXnyIZ9dx0Lpkz8aloyBG8tqjojrG+Hv
gn5f7anmnS/r4mkEztCp5HKShLzYCp9nNYf074rgq4d+e8nPYFbYNR22IlMuq/BF
m2qovpdo+E30rcs8jHp6TyX+TwIDAQABo3sweTAJBgNVHRMEAjAAMCwGCWCGSAGG
+EIBDQQfFh1PcGVuU1NMIEdlbmVyYXRlZCBDZXJ0aWZpY2F0ZTAdBgNVHQ4EFgQU
3WToDnDsGJ8L4Fg0LpOGoqEmvHowHwYDVR0jBBgwFoAU6e+rkR4VkP0MXbODXT3W
/x+0oAgwDQYJKoZIhvcNAQEFBQADgYEATsfybD2yfsTn0sWNO6OaGDvptIzAxa1U
dexljTXy+Vc1eYid/EbC9Oq6b19j1sZg0gRow5LLnGCZ6BzVVD58+IKVF15iQq1V
NifO6XdgPqZzG2l6ZYWoAJT5pRuENoVVfLFZOVnblhX0iUdGasR2lYmFmzWJnzYm
EPdaGJDmyNQ=
-----END CERTIFICATE-----
