Certificate:
    Data:
        Version: 3 (0x2)
        Serial Number: 2 (0x2)
    Signature Algorithm: sha1WithRSAEncryption
        Issuer: CN=ca.localdomain, C=FR, ST=BdR, L=Aix, O=fD, OU=Tests
        Validity
            Not Before: Nov  6 14:13:46 2015 GMT
            Not After : Nov  5 14:13:46 2016 GMT
        Subject: C=FR, ST=BdR, O=fD, OU=Tests, CN=peer2.localdomain
        Subject Public Key Info:
            Public Key Algorithm: rsaEncryption
                Public-Key: (1024 bit)
                Modulus:
                    00:d2:82:04:a4:e3:86:62:63:1d:01:75:93:ca:d9:
                    77:37:c7:82:8a:54:e6:ba:e9:b7:76:da:13:96:8f:
                    95:3a:f2:23:e9:d2:7b:f1:ff:50:6d:d2:d4:23:00:
                    0e:fd:41:3a:5c:3e:8a:de:2d:9d:07:f3:01:ad:64:
                    94:b5:d7:3e:87:75:c3:2e:71:7e:f0:53:52:f9:cc:
                    e6:6b:bf:0c:83:9f:88:f2:66:fc:19:d7:0f:86:76:
                    69:25:6c:97:e7:75:a3:3e:1d:b8:6a:27:c6:c5:41:
                    25:42:da:a6:0f:50:da:9f:84:dd:fe:b8:c8:da:37:
                    be:bc:34:53:47:36:6c:3d:c7
                Exponent: 65537 (0x10001)
        X509v3 extensions:
            X509v3 Basic Constraints: 
                CA:FALSE
            Netscape Comment: 
                OpenSSL Generated Certificate
            X509v3 Subject Key Identifier: 
                62:F3:5B:15:47:40:23:CB:88:1A:CC:C3:BA:25:61:70:43:ED:42:20
            X509v3 Authority Key Identifier: 
                keyid:66:3A:3F:85:B8:E9:03:30:82:D0:1A:E1:5C:07:36:14:36:F9:00:88

    Signature Algorithm: sha1WithRSAEncryption
         4d:b3:f5:e5:c9:fb:18:0a:bf:51:79:9a:c3:51:c1:b1:06:8f:
         1d:a9:05:c8:d3:2d:c5:e4:d6:f5:c8:3d:fe:cb:f4:6a:a1:f8:
         9b:7a:40:3e:87:79:84:00:78:44:9e:9c:7d:89:fd:5f:5a:1c:
         86:ef:44:27:e6:42:58:23:11:56:95:78:a9:89:db:0c:c6:41:
         e4:9f:0f:fd:b1:35:46:a7:6b:dd:00:54:54:76:e7:2f:fc:07:
         91:22:fc:86:f7:53:20:d2:ba:61:9b:96:02:3a:f7:0a:75:57:
         69:1b:70:56:33:c7:90:83:4e:39:10:ef:c3:2d:7e:d6:f1:54:
         22:75
-----BEGIN CERTIFICATE-----
MIICpDCCAg2gAwIBAgIBAjANBgkqhkiG9w0BAQUFADBfMRcwFQYDVQQDDA5jYS5s
b2NhbGRvbWFpbjELMAkGA1UEBhMCRlIxDDAKBgNVBAgMA0JkUjEMMAoGA1UEBwwD
QWl4MQswCQYDVQQKDAJmRDEOMAwGA1UECwwFVGVzdHMwHhcNMTUxMTA2MTQxMzQ2
WhcNMTYxMTA1MTQxMzQ2WjBUMQswCQYDVQQGEwJGUjEMMAoGA1UECAwDQmRSMQsw
CQYDVQQKDAJmRDEOMAwGA1UECwwFVGVzdHMxGjAYBgNVBAMMEXBlZXIyLmxvY2Fs
ZG9tYWluMIGfMA0GCSqGSIb3DQEBAQUAA4GNADCBiQKBgQDSggSk44ZiYx0BdZPK
2Xc3x4KKVOa66bd22hOWj5U68iPp0nvx/1Bt0tQjAA79QTpcPoreLZ0H8wGtZJS1
1z6HdcMucX7wU1L5zOZrvwyDn4jyZvwZ1w+GdmklbJfndaM+HbhqJ8bFQSVC2qYP
UNqfhN3+uMjaN768NFNHNmw9xwIDAQABo3sweTAJBgNVHRMEAjAAMCwGCWCGSAGG
+EIBDQQfFh1PcGVuU1NMIEdlbmVyYXRlZCBDZXJ0aWZpY2F0ZTAdBgNVHQ4EFgQU
YvNbFUdAI8uIGszDuiVhcEPtQiAwHwYDVR0jBBgwFoAUZjo/hbjpAzCC0BrhXAc2
FDb5AIgwDQYJKoZIhvcNAQEFBQADgYEATbP15cn7GAq/UXmaw1HBsQaPHakFyNMt
xeTW9cg9/sv0aqH4m3pAPod5hAB4RJ6cfYn9X1ochu9EJ+ZCWCMRVpV4qYnbDMZB
5J8P/bE1Rqdr3QBUVHbnL/wHkSL8hvdTINK6YZuWAjr3CnVXaRtwVjPHkINOORDv
wy1+1vFUInU=
-----END CERTIFICATE-----
