Certificate:
    Data:
        Version: 3 (0x2)
        Serial Number: 1 (0x1)
    Signature Algorithm: sha1WithRSAEncryption
        Issuer: CN=peer1.localdomain, C=FR, ST=BdR, L=Aix, O=fD, OU=Tests
        Validity
            Not Before: Jan 28 15:06:29 2016 GMT
            Not After : Jan 27 15:06:29 2017 GMT
        Subject: C=FR, ST=BdR, O=fD, OU=Tests, CN=peer1.localdomain
        Subject Public Key Info:
            Public Key Algorithm: rsaEncryption
                Public-Key: (1024 bit)
                Modulus:
                    00:aa:37:51:35:bf:71:96:85:7f:29:2b:be:71:03:
                    e6:cb:23:c1:b9:be:57:26:03:0c:c1:80:1d:6f:94:
                    ea:90:0b:0f:f6:69:ef:f1:31:79:1a:92:2c:b6:d7:
                    cf:89:e6:fa:bf:da:d5:ea:56:69:2b:fa:64:4f:17:
                    9d:c0:cd:97:1c:cc:57:7b:95:dc:61:b6:76:55:b3:
                    74:75:d6:61:b8:47:05:20:36:95:e7:09:bf:fb:87:
                    1b:ae:dd:9f:ff:92:5a:0a:f4:25:d8:60:3b:c3:a3:
                    96:76:ec:bc:53:a8:be:d4:0d:d8:3a:0d:75:97:5a:
                    1e:b7:8b:92:16:3a:6c:7e:13
                Exponent: 65537 (0x10001)
        X509v3 extensions:
            X509v3 Basic Constraints: 
                CA:FALSE
            Netscape Comment: 
                OpenSSL Generated Certificate
            X509v3 Subject Key Identifier: 
                4E:F5:86:09:37:02:32:15:EB:A3:D6:A4:38:27:E5:56:78:6E:C5:05
            X509v3 Authority Key Identifier: 
                keyid:04:8D:DD:18:C7:FA:73:8E:3F:E5:AA:1E:6B:A2:95:40:B0:89:FC:81

    Signature Algorithm: sha1WithRSAEncryption
         22:98:33:bd:3c:e9:be:e8:d6:02:09:f6:ec:52:e9:79:b6:33:
         46:f8:4e:6a:29:7b:9c:5f:d1:12:a9:e4:67:d2:bb:99:d7:c4:
         07:8f:e3:8c:5a:b0:e7:b2:1a:f2:39:b5:e1:1c:71:11:34:2a:
         4f:59:cd:e7:ab:40:ea:20:31:9f:49:a9:b6:ce:be:a7:27:ec:
         07:14:40:7d:f2:d5:e3:da:10:75:ce:24:ea:3e:d3:55:8f:78:
         85:f4:9a:9d:66:25:15:2a:99:c9:b5:08:59:bf:fb:11:2b:77:
         b0:0e:fb:ba:24:45:bb:29:10:00:7b:27:17:5a:60:45:29:98:
         f8:03
-----BEGIN CERTIFICATE-----
MIICpzCCAhCgAwIBAgIBATANBgkqhkiG9w0BAQUFADBiMRowGAYDVQQDDBFwZWVy
MS5sb2NhbGRvbWFpbjELMAkGA1UEBhMCRlIxDDAKBgNVBAgMA0JkUjEMMAoGA1UE
BwwDQWl4MQswCQYDVQQKDAJmRDEOMAwGA1UECwwFVGVzdHMwHhcNMTYwMTI4MTUw
NjI5WhcNMTcwMTI3MTUwNjI5WjBUMQswCQYDVQQGEwJGUjEMMAoGA1UECAwDQmRS
MQswCQYDVQQKDAJmRDEOMAwGA1UECwwFVGVzdHMxGjAYBgNVBAMMEXBlZXIxLmxv
Y2FsZG9tYWluMIGfMA0GCSqGSIb3DQEBAQUAA4GNADCBiQKBgQCqN1E1v3GWhX8p
K75xA+bLI8G5vlcmAwzBgB1vlOqQCw/2ae/xMXkakiy218+J5vq/2tXqVmkr+mRP
F53AzZcczFd7ldxhtnZVs3R11mG4RwUgNpXnCb/7hxuu3Z//kloK9CXYYDvDo5Z2
7LxTqL7UDdg6DXWXWh63i5IWOmx+EwIDAQABo3sweTAJBgNVHRMEAjAAMCwGCWCG
SAGG+EIBDQQfFh1PcGVuU1NMIEdlbmVyYXRlZCBDZXJ0aWZpY2F0ZTAdBgNVHQ4E
FgQUTvWGCTcCMhXro9akOCflVnhuxQUwHwYDVR0jBBgwFoAUBI3dGMf6c44/5aoe
a6KVQLCJ/IEwDQYJKoZIhvcNAQEFBQADgYEAIpgzvTzpvujWAgn27FLpebYzRvhO
ail7nF/REqnkZ9K7mdfEB4/jjFqw57Ia8jm14RxxETQqT1nN56tA6iAxn0mpts6+
pyfsBxRAffLV49oQdc4k6j7TVY94hfSanWYlFSqZybUIWb/7ESt3sA77uiRFuykQ
AHsnF1pgRSmY+AM=
-----END CERTIFICATE-----
